target datalayout = "e-m:e-p270:32:32-p271:32:32-p272:64:64-i64:64-i128:128-f80:128-n8:16:32:64-S128"
target triple = "x86_64-unknown-linux-gnu"

%"class.std::__cxx11::basic_string" = type { %"struct.std::__cxx11::basic_string<char>::_Alloc_hider", i64, %union.anon }
%"struct.std::__cxx11::basic_string<char>::_Alloc_hider" = type { ptr }
%union.anon = type { i64, [8 x i8] }
%"class.facebook::velox::common::Filter" = type { %"class.facebook::velox::ISerializable", i8, i8, i32 }
%"class.facebook::velox::ISerializable" = type { ptr }
%"class.facebook::velox::common::AbstractRange.base" = type <{ %"class.facebook::velox::common::Filter", i8, i8, i8, i8 }>
%"class.facebook::velox::common::BytesRange" = type <{ %"class.facebook::velox::common::AbstractRange.base", [4 x i8], %"class.std::__cxx11::basic_string", %"class.std::__cxx11::basic_string", i8, [7 x i8] }>

@_ZTIN8facebook5velox6common6FilterE = constant { ptr, ptr, ptr } { ptr getelementptr inbounds (ptr, ptr @_ZTVN10__cxxabiv120__si_class_type_infoE, i64 2), ptr @_ZTSN8facebook5velox6common6FilterE, ptr @_ZTIN8facebook5velox13ISerializableE }, align 8
@_ZTIN8facebook5velox6common10BytesRangeE = constant { ptr, ptr, ptr } { ptr getelementptr inbounds (ptr, ptr @_ZTVN10__cxxabiv120__si_class_type_infoE, i64 2), ptr @_ZTSN8facebook5velox6common10BytesRangeE, ptr @_ZTIN8facebook5velox6common13AbstractRangeE }, align 8

; Function Attrs: mustprogress nounwind uwtable
define linkonce_odr noundef i32 @_ZNSt11char_traitsIcE7compareEPKcS2_m(ptr noundef %__s1, ptr noundef %__s2, i64 noundef %__n) #3 comdat align 2 {
entry:
  %retval = alloca i32, align 4
  %__s1.addr = alloca ptr, align 8
  %__s2.addr = alloca ptr, align 8
  %__n.addr = alloca i64, align 8
  store ptr %__s1, ptr %__s1.addr, align 8
  store ptr %__s2, ptr %__s2.addr, align 8
  store i64 %__n, ptr %__n.addr, align 8
  %0 = load i64, ptr %__n.addr, align 8
  %cmp = icmp eq i64 %0, 0
  br i1 %cmp, label %if.then, label %if.end

if.then:                                          ; preds = %entry
  store i32 0, ptr %retval, align 4
  br label %return

if.end:                                           ; preds = %entry
  %1 = load ptr, ptr %__s1.addr, align 8
  %2 = load ptr, ptr %__s2.addr, align 8
  %3 = load i64, ptr %__n.addr, align 8
  %call = call i32 @memcmp(ptr noundef %1, ptr noundef %2, i64 noundef %3) #13
  store i32 %call, ptr %retval, align 4
  br label %return

return:                                           ; preds = %if.end, %if.then
  %4 = load i32, ptr %retval, align 4
  ret i32 %4
}

; Function Attrs: mustprogress nounwind uwtable
define linkonce_odr noundef i32 @_ZNK8facebook5velox6common6Filter4kindEv(ptr noundef nonnull align 8 dereferenceable(16) %this) #3 comdat align 2 {
entry:
  %this.addr = alloca ptr, align 8
  store ptr %this, ptr %this.addr, align 8
  %this1 = load ptr, ptr %this.addr, align 8
  %kind_ = getelementptr inbounds %"class.facebook::velox::common::Filter", ptr %this1, i32 0, i32 3
  %0 = load i32, ptr %kind_, align 4
  ret i32 %0
}

; Function Attrs: mustprogress nounwind uwtable
define linkonce_odr noundef zeroext i1 @_ZSteqIcEN9__gnu_cxx11__enable_ifIXsr9__is_charIT_EE7__valueEbE6__typeERKNSt7__cxx1112basic_stringIS2_St11char_traitsIS2_ESaIS2_EEESC_(ptr noundef nonnull align 8 dereferenceable(32) %__lhs, ptr noundef nonnull align 8 dereferenceable(32) %__rhs) #3 comdat {
entry:
  %__lhs.addr = alloca ptr, align 8
  %__rhs.addr = alloca ptr, align 8
  store ptr %__lhs, ptr %__lhs.addr, align 8
  store ptr %__rhs, ptr %__rhs.addr, align 8
  %0 = load ptr, ptr %__lhs.addr, align 8
  %call = call noundef i64 @_ZNKSt7__cxx1112basic_stringIcSt11char_traitsIcESaIcEE4sizeEv(ptr noundef nonnull align 8 dereferenceable(32) %0) #13
  %1 = load ptr, ptr %__rhs.addr, align 8
  %call1 = call noundef i64 @_ZNKSt7__cxx1112basic_stringIcSt11char_traitsIcESaIcEE4sizeEv(ptr noundef nonnull align 8 dereferenceable(32) %1) #13
  %cmp = icmp eq i64 %call, %call1
  br i1 %cmp, label %land.rhs, label %land.end

land.rhs:                                         ; preds = %entry
  %2 = load ptr, ptr %__lhs.addr, align 8
  %call2 = call noundef ptr @_ZNKSt7__cxx1112basic_stringIcSt11char_traitsIcESaIcEE4dataEv(ptr noundef nonnull align 8 dereferenceable(32) %2) #13
  %3 = load ptr, ptr %__rhs.addr, align 8
  %call3 = call noundef ptr @_ZNKSt7__cxx1112basic_stringIcSt11char_traitsIcESaIcEE4dataEv(ptr noundef nonnull align 8 dereferenceable(32) %3) #13
  %4 = load ptr, ptr %__lhs.addr, align 8
  %call4 = call noundef i64 @_ZNKSt7__cxx1112basic_stringIcSt11char_traitsIcESaIcEE4sizeEv(ptr noundef nonnull align 8 dereferenceable(32) %4) #13
  %call5 = call noundef i32 @_ZNSt11char_traitsIcE7compareEPKcS2_m(ptr noundef %call2, ptr noundef %call3, i64 noundef %call4)
  %tobool = icmp ne i32 %call5, 0
  %lnot = xor i1 %tobool, true
  br label %land.end

land.end:                                         ; preds = %land.rhs, %entry
  %5 = phi i1 [ false, %entry ], [ %lnot, %land.rhs ]
  ret i1 %5
}

; Function Attrs: mustprogress uwtable
define linkonce_odr noundef zeroext i1 @_ZNK8facebook5velox6common6Filter17testingBaseEqualsERKS2_(ptr noundef nonnull align 8 dereferenceable(16) %this, ptr noundef nonnull align 8 dereferenceable(16) %other) #0 comdat align 2 {
entry:
  %this.addr = alloca ptr, align 8
  %other.addr = alloca ptr, align 8
  store ptr %this, ptr %this.addr, align 8
  store ptr %other, ptr %other.addr, align 8
  %this1 = load ptr, ptr %this.addr, align 8
  %deterministic_ = getelementptr inbounds %"class.facebook::velox::common::Filter", ptr %this1, i32 0, i32 2
  %0 = load i8, ptr %deterministic_, align 1
  %tobool = trunc i8 %0 to i1
  %conv = zext i1 %tobool to i32
  %1 = load ptr, ptr %other.addr, align 8
  %vtable = load ptr, ptr %1, align 8
  %vfn = getelementptr inbounds ptr, ptr %vtable, i64 4
  %2 = load ptr, ptr %vfn, align 8
  %call = call noundef zeroext i1 %2(ptr noundef nonnull align 8 dereferenceable(16) %1)
  %conv2 = zext i1 %call to i32
  %cmp = icmp eq i32 %conv, %conv2
  br i1 %cmp, label %land.lhs.true, label %land.end

land.lhs.true:                                    ; preds = %entry
  %nullAllowed_ = getelementptr inbounds %"class.facebook::velox::common::Filter", ptr %this1, i32 0, i32 1
  %3 = load i8, ptr %nullAllowed_, align 8
  %tobool3 = trunc i8 %3 to i1
  %conv4 = zext i1 %tobool3 to i32
  %4 = load ptr, ptr %other.addr, align 8
  %nullAllowed_5 = getelementptr inbounds %"class.facebook::velox::common::Filter", ptr %4, i32 0, i32 1
  %5 = load i8, ptr %nullAllowed_5, align 8
  %tobool6 = trunc i8 %5 to i1
  %conv7 = zext i1 %tobool6 to i32
  %cmp8 = icmp eq i32 %conv4, %conv7
  br i1 %cmp8, label %land.rhs, label %land.end

land.rhs:                                         ; preds = %land.lhs.true
  %kind_ = getelementptr inbounds %"class.facebook::velox::common::Filter", ptr %this1, i32 0, i32 3
  %6 = load i32, ptr %kind_, align 4
  %7 = load ptr, ptr %other.addr, align 8
  %call9 = call noundef i32 @_ZNK8facebook5velox6common6Filter4kindEv(ptr noundef nonnull align 8 dereferenceable(16) %7)
  %cmp10 = icmp eq i32 %6, %call9
  br label %land.end

land.end:                                         ; preds = %land.rhs, %land.lhs.true, %entry
  %8 = phi i1 [ false, %land.lhs.true ], [ false, %entry ], [ %cmp10, %land.rhs ]
  ret i1 %8
}

; Function Attrs: mustprogress uwtable
define noundef zeroext i1 @_ZNK8facebook5velox6common10BytesRange13testingEqualsERKNS1_6FilterE(ptr noundef nonnull align 8 dereferenceable(96) %this, ptr noundef nonnull align 8 dereferenceable(16) %other) unnamed_addr #0 align 2 {
entry:
  %this.addr = alloca ptr, align 8
  %other.addr = alloca ptr, align 8
  %otherBytesRange = alloca ptr, align 8
  store ptr %this, ptr %this.addr, align 8
  store ptr %other, ptr %other.addr, align 8
  %this1 = load ptr, ptr %this.addr, align 8
  %0 = load ptr, ptr %other.addr, align 8
  %1 = icmp eq ptr %0, null
  br i1 %1, label %dynamic_cast.null, label %dynamic_cast.notnull

dynamic_cast.notnull:                             ; preds = %entry
  %2 = call ptr @__dynamic_cast(ptr %0, ptr @_ZTIN8facebook5velox6common6FilterE, ptr @_ZTIN8facebook5velox6common10BytesRangeE, i64 0) #13
  br label %dynamic_cast.end

dynamic_cast.null:                                ; preds = %entry
  br label %dynamic_cast.end

dynamic_cast.end:                                 ; preds = %dynamic_cast.null, %dynamic_cast.notnull
  %3 = phi ptr [ %2, %dynamic_cast.notnull ], [ null, %dynamic_cast.null ]
  store ptr %3, ptr %otherBytesRange, align 8
  %4 = load ptr, ptr %otherBytesRange, align 8
  %cmp = icmp ne ptr %4, null
  br i1 %cmp, label %land.lhs.true, label %land.end

land.lhs.true:                                    ; preds = %dynamic_cast.end
  %5 = load ptr, ptr %other.addr, align 8
  %call = call noundef zeroext i1 @_ZNK8facebook5velox6common6Filter17testingBaseEqualsERKS2_(ptr noundef nonnull align 8 dereferenceable(16) %this1, ptr noundef nonnull align 8 dereferenceable(16) %5)
  br i1 %call, label %land.lhs.true2, label %land.end

land.lhs.true2:                                   ; preds = %land.lhs.true
  %lower_ = getelementptr inbounds %"class.facebook::velox::common::BytesRange", ptr %this1, i32 0, i32 2
  %6 = load ptr, ptr %otherBytesRange, align 8
  %lower_3 = getelementptr inbounds %"class.facebook::velox::common::BytesRange", ptr %6, i32 0, i32 2
  %call4 = call noundef zeroext i1 @_ZSteqIcEN9__gnu_cxx11__enable_ifIXsr9__is_charIT_EE7__valueEbE6__typeERKNSt7__cxx1112basic_stringIS2_St11char_traitsIS2_ESaIS2_EEESC_(ptr noundef nonnull align 8 dereferenceable(32) %lower_, ptr noundef nonnull align 8 dereferenceable(32) %lower_3) #13
  br i1 %call4, label %land.lhs.true5, label %land.end

land.lhs.true5:                                   ; preds = %land.lhs.true2
  %upper_ = getelementptr inbounds %"class.facebook::velox::common::BytesRange", ptr %this1, i32 0, i32 3
  %7 = load ptr, ptr %otherBytesRange, align 8
  %upper_6 = getelementptr inbounds %"class.facebook::velox::common::BytesRange", ptr %7, i32 0, i32 3
  %call7 = call noundef zeroext i1 @_ZSteqIcEN9__gnu_cxx11__enable_ifIXsr9__is_charIT_EE7__valueEbE6__typeERKNSt7__cxx1112basic_stringIS2_St11char_traitsIS2_ESaIS2_EEESC_(ptr noundef nonnull align 8 dereferenceable(32) %upper_, ptr noundef nonnull align 8 dereferenceable(32) %upper_6) #13
  br i1 %call7, label %land.rhs, label %land.end

land.rhs:                                         ; preds = %land.lhs.true5
  %singleValue_ = getelementptr inbounds %"class.facebook::velox::common::BytesRange", ptr %this1, i32 0, i32 4
  %8 = load i8, ptr %singleValue_, align 8
  %tobool = trunc i8 %8 to i1
  %conv = zext i1 %tobool to i32
  %9 = load ptr, ptr %otherBytesRange, align 8
  %singleValue_8 = getelementptr inbounds %"class.facebook::velox::common::BytesRange", ptr %9, i32 0, i32 4
  %10 = load i8, ptr %singleValue_8, align 8
  %tobool9 = trunc i8 %10 to i1
  %conv10 = zext i1 %tobool9 to i32
  %cmp11 = icmp eq i32 %conv, %conv10
  br label %land.end

land.end:                                         ; preds = %land.rhs, %land.lhs.true5, %land.lhs.true2, %land.lhs.true, %dynamic_cast.end
  %11 = phi i1 [ false, %land.lhs.true5 ], [ false, %land.lhs.true2 ], [ false, %land.lhs.true ], [ false, %dynamic_cast.end ], [ %cmp11, %land.rhs ]
  ret i1 %11
}